; Function Attrs: cold nounwind optsize uwtable
define internal fastcc void @vc1_decode_reset(ptr %.32.val) unnamed_addr #0 {
  %1 = getelementptr inbounds nuw i8, ptr %.32.val, i64 10488
  tail call void @av_frame_free(ptr noundef nonnull %1) #13
  %2 = getelementptr inbounds nuw i8, ptr %.32.val, i64 10512
  br label %3

3:                                                ; preds = %0, %3
  %.01 = phi i32 [ 0, %0 ], [ %9, %3 ]
  %4 = lshr i32 %.01, 1
  %5 = zext nneg i32 %4 to i64
  %6 = and i32 %.01, 1
  %7 = zext nneg i32 %6 to i64
  %8 = getelementptr inbounds nuw [2 x [2 x ptr]], ptr %2, i64 0, i64 %5, i64 %7
  tail call void @av_freep(ptr noundef nonnull %8) #13
  %9 = add nuw nsw i32 %.01, 1
  %exitcond.not = icmp eq i32 %9, 4
  br i1 %exitcond.not, label %10, label %3, !llvm.loop !91

10:                                               ; preds = %3
  tail call void @ff_mpv_common_end(ptr noundef nonnull %.32.val) #13
  %11 = getelementptr inbounds nuw i8, ptr %.32.val, i64 3364
  tail call void @llvm.memset.p0.i64(ptr noundef nonnull align 4 dereferenceable(24) %11, i8 0, i64 24, i1 false)
  %12 = getelementptr inbounds nuw i8, ptr %.32.val, i64 6968
  tail call void @av_freep(ptr noundef nonnull %12) #13
  %13 = getelementptr inbounds nuw i8, ptr %.32.val, i64 6976
  tail call void @av_freep(ptr noundef nonnull %13) #13
  %14 = getelementptr inbounds nuw i8, ptr %.32.val, i64 6984
  tail call void @av_freep(ptr noundef nonnull %14) #13
  %15 = getelementptr inbounds nuw i8, ptr %.32.val, i64 10248
  tail call void @av_freep(ptr noundef nonnull %15) #13
  %16 = getelementptr inbounds nuw i8, ptr %.32.val, i64 10160
  tail call void @av_freep(ptr noundef nonnull %16) #13
  %17 = getelementptr inbounds nuw i8, ptr %.32.val, i64 10176
  tail call void @av_freep(ptr noundef nonnull %17) #13
  %18 = getelementptr inbounds nuw i8, ptr %.32.val, i64 6904
  tail call void @av_freep(ptr noundef nonnull %18) #13
  %19 = getelementptr inbounds nuw i8, ptr %.32.val, i64 10328
  tail call void @av_freep(ptr noundef nonnull %19) #13
  %20 = getelementptr inbounds nuw i8, ptr %.32.val, i64 10344
  tail call void @av_freep(ptr noundef nonnull %20) #13
  %21 = getelementptr inbounds nuw i8, ptr %.32.val, i64 10368
  tail call void @av_freep(ptr noundef nonnull %21) #13
  %22 = getelementptr inbounds nuw i8, ptr %.32.val, i64 10560
  tail call void @av_freep(ptr noundef nonnull %22) #13
  %23 = getelementptr inbounds nuw i8, ptr %.32.val, i64 10592
  tail call void @av_freep(ptr noundef nonnull %23) #13
  %24 = getelementptr inbounds nuw i8, ptr %.32.val, i64 6864
  tail call void @av_freep(ptr noundef nonnull %24) #13
  %25 = getelementptr inbounds nuw i8, ptr %.32.val, i64 10608
  tail call void @av_freep(ptr noundef nonnull %25) #13
  %26 = getelementptr inbounds nuw i8, ptr %.32.val, i64 10624
  tail call void @av_freep(ptr noundef nonnull %26) #13
  %27 = getelementptr inbounds nuw i8, ptr %.32.val, i64 4808
  tail call void @ff_intrax8_common_end(ptr noundef nonnull %27) #13
  ret void
}